target datalayout = "e-m:e-p270:32:32-p271:32:32-p272:64:64-i64:64-i128:128-f80:128-n8:16:32:64-S128"
target triple = "x86_64-pc-linux-gnu"

%struct.strvec = type { ptr, i64, i64 }
%struct.strbuf = type { i64, i64, ptr }
%struct.am_state = type { ptr, i32, i32, ptr, ptr, ptr, ptr, i64, %struct.object_id, i32, i32, i32, i32, i32, i32, i32, i32, i32, i32, i32, i32, %struct.strvec, ptr, i32, i32, i32, ptr, i32 }
%struct.object_id = type { [32 x i8], i32 }
%struct.repository = type { ptr, ptr, ptr, ptr, ptr, %struct.strmap, %struct.strmap, %struct.repo_path_cache, ptr, ptr, ptr, ptr, %struct.repo_settings, ptr, ptr, ptr, ptr, ptr, ptr, i32, i32, i32, ptr, ptr, i32, i32, i8 }
%struct.strmap = type { %struct.hashmap, ptr, i8 }
%struct.hashmap = type { ptr, ptr, ptr, i32, i32, i32, i32, i8 }
%struct.repo_path_cache = type { ptr, ptr, ptr, ptr, ptr, ptr, ptr }
%struct.repo_settings = type { i32, i32, i32, i32, i32, i32, i32, i32, i32, i32, i32, i32, ptr, i32, i32, i32, i32, i32, i32, i32, i64, i64, i64 }
%struct.string_list = type { ptr, i64, i64, i8, ptr }
%struct.apply_state = type { ptr, %struct.lock_file, i32, i32, i32, i32, i32, i32, i32, i32, i32, i32, i32, i32, i32, i32, i32, i32, i32, ptr, ptr, i32, i32, ptr, ptr, i32, %struct.strbuf, i32, i32, i32, %struct.string_list, i32, i32, %struct.strset, %struct.strset, i32, i32, %struct.string_list, ptr, ptr, i32, i32, ptr, i32, i32, i32 }
%struct.lock_file = type { ptr }
%struct.strset = type { %struct.strmap }

@the_repository = external global ptr, align 8
@.str.83 = private unnamed_addr constant [6 x i8] c"%s/%s\00", align 1
@.str.85 = private unnamed_addr constant [13 x i8] c"builtin/am.c\00", align 1
@.str.188 = private unnamed_addr constant [6 x i8] c"patch\00", align 1
@__const.run_apply.apply_paths = private unnamed_addr constant %struct.strvec { ptr @empty_strvec, i64 0, i64 0 }, align 8
@__const.run_apply.apply_opts = private unnamed_addr constant %struct.strvec { ptr @empty_strvec, i64 0, i64 0 }, align 8
@.str.231 = private unnamed_addr constant [26 x i8] c"init_apply_state() failed\00", align 1
@.str.232 = private unnamed_addr constant [6 x i8] c"apply\00", align 1
@.str.233 = private unnamed_addr constant [43 x i8] c"unknown option passed through to git apply\00", align 1
@.str.234 = private unnamed_addr constant [27 x i8] c"check_apply_state() failed\00", align 1
@.str.235 = private unnamed_addr constant [27 x i8] c"size_t overflow: %lu * %lu\00", align 1

; Function Attrs: inlinehint nounwind uwtable
define internal ptr @am_path(ptr noundef %0, ptr noundef %1) #5 {
  %3 = alloca ptr, align 8
  %4 = alloca ptr, align 8
  store ptr %0, ptr %3, align 8, !tbaa !47
  store ptr %1, ptr %4, align 8, !tbaa !11
  %5 = load ptr, ptr %3, align 8, !tbaa !47
  %6 = getelementptr inbounds nuw %struct.am_state, ptr %5, i32 0, i32 0
  %7 = load ptr, ptr %6, align 8, !tbaa !31
  %8 = load ptr, ptr %4, align 8, !tbaa !11
  %9 = call ptr (ptr, ...) @mkpath(ptr noundef @.str.83, ptr noundef %7, ptr noundef %8)
  ret ptr %9
}

; Function Attrs: inlinehint nounwind uwtable
define internal void @copy_array(ptr noundef %0, ptr noundef %1, i64 noundef %2, i64 noundef %3) #5 {
  %5 = alloca ptr, align 8
  %6 = alloca ptr, align 8
  %7 = alloca i64, align 8
  %8 = alloca i64, align 8
  store ptr %0, ptr %5, align 8, !tbaa !46
  store ptr %1, ptr %6, align 8, !tbaa !46
  store i64 %2, ptr %7, align 8, !tbaa !103
  store i64 %3, ptr %8, align 8, !tbaa !103
  %9 = load i64, ptr %7, align 8, !tbaa !103
  %10 = icmp ne i64 %9, 0
  br i1 %10, label %11, label %17

11:                                               ; preds = %4
  %12 = load ptr, ptr %5, align 8, !tbaa !46
  %13 = load ptr, ptr %6, align 8, !tbaa !46
  %14 = load i64, ptr %8, align 8, !tbaa !103
  %15 = load i64, ptr %7, align 8, !tbaa !103
  %16 = call i64 @st_mult(i64 noundef %14, i64 noundef %15)
  call void @llvm.memcpy.p0.p0.i64(ptr align 1 %12, ptr align 1 %13, i64 %16, i1 false)
  br label %17

17:                                               ; preds = %11, %4
  ret void
}

; Function Attrs: inlinehint nounwind uwtable
define internal i64 @st_mult(i64 noundef %0, i64 noundef %1) #5 {
  %3 = alloca i64, align 8
  %4 = alloca i64, align 8
  store i64 %0, ptr %3, align 8, !tbaa !103
  store i64 %1, ptr %4, align 8, !tbaa !103
  %5 = load i64, ptr %3, align 8, !tbaa !103
  %6 = icmp ne i64 %5, 0
  br i1 %6, label %7, label %15

7:                                                ; preds = %2
  %8 = load i64, ptr %4, align 8, !tbaa !103
  %9 = load i64, ptr %3, align 8, !tbaa !103
  %10 = udiv i64 -1, %9
  %11 = icmp ugt i64 %8, %10
  br i1 %11, label %12, label %15

12:                                               ; preds = %7
  %13 = load i64, ptr %3, align 8, !tbaa !103
  %14 = load i64, ptr %4, align 8, !tbaa !103
  call void (ptr, ...) @die(ptr noundef @.str.235, i64 noundef %13, i64 noundef %14) #15
  unreachable

15:                                               ; preds = %7, %2
  %16 = load i64, ptr %3, align 8, !tbaa !103
  %17 = load i64, ptr %4, align 8, !tbaa !103
  %18 = mul i64 %16, %17
  ret i64 %18
}

; Function Attrs: nounwind uwtable
define internal i32 @run_apply(ptr noundef %0, ptr noundef %1) #0 {
  %3 = alloca i32, align 4
  %4 = alloca ptr, align 8
  %5 = alloca ptr, align 8
  %6 = alloca %struct.strvec, align 8
  %7 = alloca %struct.strvec, align 8
  %8 = alloca %struct.apply_state, align 8
  %9 = alloca i32, align 4
  %10 = alloca i32, align 4
  %11 = alloca i32, align 4
  %12 = alloca i32, align 4
  %13 = alloca ptr, align 8
  %14 = alloca i64, align 8
  %15 = alloca i32, align 4
  store ptr %0, ptr %4, align 8, !tbaa !47
  store ptr %1, ptr %5, align 8, !tbaa !11
  call void @llvm.lifetime.start.p0(i64 24, ptr %6) #14
  call void @llvm.memcpy.p0.p0.i64(ptr align 8 %6, ptr align 8 @__const.run_apply.apply_paths, i64 24, i1 false)
  call void @llvm.lifetime.start.p0(i64 24, ptr %7) #14
  call void @llvm.memcpy.p0.p0.i64(ptr align 8 %7, ptr align 8 @__const.run_apply.apply_opts, i64 24, i1 false)
  call void @llvm.lifetime.start.p0(i64 448, ptr %8) #14
  call void @llvm.lifetime.start.p0(i64 4, ptr %9) #14
  call void @llvm.lifetime.start.p0(i64 4, ptr %10) #14
  call void @llvm.lifetime.start.p0(i64 4, ptr %11) #14
  store i32 0, ptr %11, align 4, !tbaa !4
  call void @llvm.lifetime.start.p0(i64 4, ptr %12) #14
  store i32 0, ptr %12, align 4, !tbaa !4
  call void @llvm.lifetime.start.p0(i64 8, ptr %13) #14
  %16 = load ptr, ptr @the_repository, align 8, !tbaa !13
  %17 = call i32 @init_apply_state(ptr noundef %8, ptr noundef %16, ptr noundef null)
  %18 = icmp ne i32 %17, 0
  br i1 %18, label %19, label %20

19:                                               ; preds = %2
  call void (ptr, i32, ptr, ...) @BUG_fl(ptr noundef @.str.85, i32 noundef 1498, ptr noundef @.str.231) #15
  unreachable

20:                                               ; preds = %2
  %21 = call ptr @strvec_push(ptr noundef %7, ptr noundef @.str.232)
  %22 = load ptr, ptr %4, align 8, !tbaa !47
  %23 = getelementptr inbounds nuw %struct.am_state, ptr %22, i32 0, i32 21
  %24 = getelementptr inbounds nuw %struct.strvec, ptr %23, i32 0, i32 0
  %25 = load ptr, ptr %24, align 8, !tbaa !90
  call void @strvec_pushv(ptr noundef %7, ptr noundef %25)
  br label %26

26:                                               ; preds = %20
  call void @llvm.lifetime.start.p0(i64 8, ptr %14) #14
  %27 = getelementptr inbounds nuw %struct.strvec, ptr %7, i32 0, i32 1
  %28 = load i64, ptr %27, align 8, !tbaa !40
  store i64 %28, ptr %14, align 8, !tbaa !103
  %29 = load i64, ptr %14, align 8, !tbaa !103
  %30 = call i64 @st_mult(i64 noundef 8, i64 noundef %29)
  %31 = call ptr @xmalloc(i64 noundef %30)
  store ptr %31, ptr %13, align 8, !tbaa !8
  %32 = getelementptr inbounds nuw %struct.strvec, ptr %7, i32 0, i32 0
  %33 = load ptr, ptr %32, align 8, !tbaa !41
  %34 = load i64, ptr %14, align 8, !tbaa !103
  call void @copy_array(ptr noundef %31, ptr noundef %33, i64 noundef %34, i64 noundef 8)
  call void @llvm.lifetime.end.p0(i64 8, ptr %14) #14
  br label %35

35:                                               ; preds = %26
  br label %36

36:                                               ; preds = %35
  %37 = getelementptr inbounds nuw %struct.strvec, ptr %7, i32 0, i32 1
  %38 = load i64, ptr %37, align 8, !tbaa !40
  %39 = trunc i64 %38 to i32
  %40 = load ptr, ptr %13, align 8, !tbaa !8
  %41 = call i32 @apply_parse_options(i32 noundef %39, ptr noundef %40, ptr noundef %8, ptr noundef %11, ptr noundef %12, ptr noundef null)
  store i32 %41, ptr %10, align 4, !tbaa !4
  %42 = load i32, ptr %10, align 4, !tbaa !4
  %43 = icmp ne i32 %42, 0
  br i1 %43, label %44, label %45

44:                                               ; preds = %36
  call void (ptr, ...) @die(ptr noundef @.str.233) #15
  unreachable

45:                                               ; preds = %36
  %46 = load ptr, ptr %5, align 8, !tbaa !11
  %47 = icmp ne ptr %46, null
  br i1 %47, label %48, label %52

48:                                               ; preds = %45
  %49 = load ptr, ptr %5, align 8, !tbaa !11
  %50 = getelementptr inbounds nuw %struct.apply_state, ptr %8, i32 0, i32 20
  store ptr %49, ptr %50, align 8, !tbaa !133
  %51 = getelementptr inbounds nuw %struct.apply_state, ptr %8, i32 0, i32 3
  store i32 1, ptr %51, align 4, !tbaa !140
  br label %54

52:                                               ; preds = %45
  %53 = getelementptr inbounds nuw %struct.apply_state, ptr %8, i32 0, i32 5
  store i32 1, ptr %53, align 4, !tbaa !141
  br label %54

54:                                               ; preds = %52, %48
  %55 = load ptr, ptr %4, align 8, !tbaa !47
  %56 = getelementptr inbounds nuw %struct.am_state, ptr %55, i32 0, i32 12
  %57 = load i32, ptr %56, align 8, !tbaa !79
  %58 = icmp ne i32 %57, 0
  br i1 %58, label %59, label %64

59:                                               ; preds = %54
  %60 = load ptr, ptr %5, align 8, !tbaa !11
  %61 = icmp ne ptr %60, null
  br i1 %61, label %64, label %62

62:                                               ; preds = %59
  %63 = getelementptr inbounds nuw %struct.apply_state, ptr %8, i32 0, i32 21
  store i32 -1, ptr %63, align 8, !tbaa !142
  br label %64

64:                                               ; preds = %62, %59, %54
  %65 = load i32, ptr %11, align 4, !tbaa !4
  %66 = call i32 @check_apply_state(ptr noundef %8, i32 noundef %65)
  %67 = icmp ne i32 %66, 0
  br i1 %67, label %68, label %69

68:                                               ; preds = %64
  call void (ptr, i32, ptr, ...) @BUG_fl(ptr noundef @.str.85, i32 noundef 1531, ptr noundef @.str.234) #15
  unreachable

69:                                               ; preds = %64
  %70 = load ptr, ptr %4, align 8, !tbaa !47
  %71 = call ptr @am_path(ptr noundef %70, ptr noundef @.str.188)
  %72 = call ptr @strvec_push(ptr noundef %6, ptr noundef %71)
  %73 = getelementptr inbounds nuw %struct.strvec, ptr %6, i32 0, i32 1
  %74 = load i64, ptr %73, align 8, !tbaa !40
  %75 = trunc i64 %74 to i32
  %76 = getelementptr inbounds nuw %struct.strvec, ptr %6, i32 0, i32 0
  %77 = load ptr, ptr %76, align 8, !tbaa !41
  %78 = load i32, ptr %12, align 4, !tbaa !4
  %79 = call i32 @apply_all_patches(ptr noundef %8, i32 noundef %75, ptr noundef %77, i32 noundef %78)
  store i32 %79, ptr %9, align 4, !tbaa !4
  call void @strvec_clear(ptr noundef %6)
  call void @strvec_clear(ptr noundef %7)
  call void @clear_apply_state(ptr noundef %8)
  %80 = load ptr, ptr %13, align 8, !tbaa !8
  call void @free(ptr noundef %80) #14
  %81 = load i32, ptr %9, align 4, !tbaa !4
  %82 = icmp ne i32 %81, 0
  br i1 %82, label %83, label %85

83:                                               ; preds = %69
  %84 = load i32, ptr %9, align 4, !tbaa !4
  store i32 %84, ptr %3, align 4
  store i32 1, ptr %15, align 4
  br label %100

85:                                               ; preds = %69
  %86 = load ptr, ptr %5, align 8, !tbaa !11
  %87 = icmp ne ptr %86, null
  br i1 %87, label %88, label %99

88:                                               ; preds = %85
  %89 = load ptr, ptr @the_repository, align 8, !tbaa !13
  %90 = getelementptr inbounds nuw %struct.repository, ptr %89, i32 0, i32 15
  %91 = load ptr, ptr %90, align 8, !tbaa !93
  call void @discard_index(ptr noundef %91)
  %92 = load ptr, ptr @the_repository, align 8, !tbaa !13
  %93 = getelementptr inbounds nuw %struct.repository, ptr %92, i32 0, i32 15
  %94 = load ptr, ptr %93, align 8, !tbaa !93
  %95 = load ptr, ptr %5, align 8, !tbaa !11
  %96 = load ptr, ptr @the_repository, align 8, !tbaa !13
  %97 = call ptr @repo_get_git_dir(ptr noundef %96)
  %98 = call i32 @read_index_from(ptr noundef %94, ptr noundef %95, ptr noundef %97)
  br label %99

99:                                               ; preds = %88, %85
  store i32 0, ptr %3, align 4
  store i32 1, ptr %15, align 4
  br label %100

100:                                              ; preds = %99, %83
  call void @llvm.lifetime.end.p0(i64 8, ptr %13) #14
  call void @llvm.lifetime.end.p0(i64 4, ptr %12) #14
  call void @llvm.lifetime.end.p0(i64 4, ptr %11) #14
  call void @llvm.lifetime.end.p0(i64 4, ptr %10) #14
  call void @llvm.lifetime.end.p0(i64 4, ptr %9) #14
  call void @llvm.lifetime.end.p0(i64 448, ptr %8) #14
  call void @llvm.lifetime.end.p0(i64 24, ptr %7) #14
  call void @llvm.lifetime.end.p0(i64 24, ptr %6) #14
  %101 = load i32, ptr %3, align 4
  ret i32 %101
}