; Function Attrs: nounwind uwtable
define internal fastcc i32 @run_apply(ptr noundef nonnull readonly captures(none) %0, ptr noundef %1) unnamed_addr #0 {
  %3 = alloca %struct.strvec, align 8
  %4 = alloca %struct.strvec, align 8
  %5 = alloca %struct.apply_state, align 8
  %6 = alloca i32, align 4
  %7 = alloca i32, align 4
  call void @llvm.lifetime.start.p0(i64 24, ptr nonnull %3) #21
  call void @llvm.memcpy.p0.p0.i64(ptr noundef nonnull align 8 dereferenceable(24) %3, ptr noundef nonnull align 8 dereferenceable(24) @__const.run_apply.apply_opts, i64 24, i1 false)
  call void @llvm.lifetime.start.p0(i64 24, ptr nonnull %4) #21
  call void @llvm.memcpy.p0.p0.i64(ptr noundef nonnull align 8 dereferenceable(24) %4, ptr noundef nonnull align 8 dereferenceable(24) @__const.run_apply.apply_opts, i64 24, i1 false)
  call void @llvm.lifetime.start.p0(i64 448, ptr nonnull %5) #21
  call void @llvm.lifetime.start.p0(i64 4, ptr nonnull %6) #21
  store i32 0, ptr %6, align 4, !tbaa !4
  call void @llvm.lifetime.start.p0(i64 4, ptr nonnull %7) #21
  store i32 0, ptr %7, align 4, !tbaa !4
  %8 = load ptr, ptr @the_repository, align 8, !tbaa !21
  %9 = call i32 @init_apply_state(ptr noundef nonnull %5, ptr noundef %8, ptr noundef null) #21
  %.not = icmp eq i32 %9, 0
  br i1 %.not, label %11, label %10

10:                                               ; preds = %2
  call void (ptr, i32, ptr, ...) @BUG_fl(ptr noundef nonnull @.str.85, i32 noundef 1498, ptr noundef nonnull @.str.231) #22
  unreachable

11:                                               ; preds = %2
  %12 = call ptr @strvec_push(ptr noundef nonnull %4, ptr noundef nonnull @.str.232) #21
  %13 = getelementptr inbounds nuw i8, ptr %0, i64 144
  %14 = load ptr, ptr %13, align 8, !tbaa !61
  call void @strvec_pushv(ptr noundef nonnull %4, ptr noundef %14) #21
  %15 = getelementptr inbounds nuw i8, ptr %4, i64 8
  %16 = load i64, ptr %15, align 8, !tbaa !175
  %17 = icmp ugt i64 %16, 2305843009213693951
  br i1 %17, label %18, label %st_mult.exit

18:                                               ; preds = %11
  call void (ptr, ...) @die(ptr noundef nonnull @.str.235, i64 noundef 8, i64 noundef %16) #22
  unreachable

st_mult.exit:                                     ; preds = %11
  %19 = shl nuw i64 %16, 3
  %20 = call ptr @xmalloc(i64 noundef %19) #21
  %.not.i = icmp eq i64 %16, 0
  br i1 %.not.i, label %copy_array.exit, label %st_mult.exit.i

st_mult.exit.i:                                   ; preds = %st_mult.exit
  %21 = load ptr, ptr %4, align 8, !tbaa !49
  call void @llvm.memcpy.p0.p0.i64(ptr align 1 %20, ptr readonly align 1 %21, i64 %19, i1 false)
  br label %copy_array.exit

copy_array.exit:                                  ; preds = %st_mult.exit, %st_mult.exit.i
  %22 = load i64, ptr %15, align 8, !tbaa !175
  %23 = trunc i64 %22 to i32
  %24 = call i32 @apply_parse_options(i32 noundef %23, ptr noundef %20, ptr noundef nonnull %5, ptr noundef nonnull %6, ptr noundef nonnull %7, ptr noundef null) #21
  %.not18 = icmp eq i32 %24, 0
  br i1 %.not18, label %26, label %25

25:                                               ; preds = %copy_array.exit
  call void (ptr, ...) @die(ptr noundef nonnull @.str.233) #22
  unreachable

26:                                               ; preds = %copy_array.exit
  %.not23 = icmp eq ptr %1, null
  br i1 %.not23, label %29, label %.thread

.thread:                                          ; preds = %26
  %27 = getelementptr inbounds nuw i8, ptr %5, i64 96
  store ptr %1, ptr %27, align 8, !tbaa !176
  %28 = getelementptr inbounds nuw i8, ptr %5, i64 20
  store i32 1, ptr %28, align 4, !tbaa !181
  br label %36

29:                                               ; preds = %26
  %30 = getelementptr inbounds nuw i8, ptr %5, i64 28
  store i32 1, ptr %30, align 4, !tbaa !182
  %31 = getelementptr inbounds nuw i8, ptr %0, i64 104
  %32 = load i32, ptr %31, align 8, !tbaa !56
  %33 = icmp eq i32 %32, 0
  br i1 %33, label %36, label %34

34:                                               ; preds = %29
  %35 = getelementptr inbounds nuw i8, ptr %5, i64 104
  store i32 -1, ptr %35, align 8, !tbaa !183
  br label %36

36:                                               ; preds = %.thread, %34, %29
  %37 = load i32, ptr %6, align 4, !tbaa !4
  %38 = call i32 @check_apply_state(ptr noundef nonnull %5, i32 noundef %37) #21
  %.not19 = icmp eq i32 %38, 0
  br i1 %.not19, label %40, label %39

39:                                               ; preds = %36
  call void (ptr, i32, ptr, ...) @BUG_fl(ptr noundef nonnull @.str.85, i32 noundef 1531, ptr noundef nonnull @.str.234) #22
  unreachable

40:                                               ; preds = %36
  %.val = load ptr, ptr %0, align 8, !tbaa !23
  %41 = call ptr (ptr, ...) @mkpath(ptr noundef nonnull @.str.83, ptr noundef %.val, ptr noundef nonnull @.str.188) #21
  %42 = call ptr @strvec_push(ptr noundef nonnull %3, ptr noundef %41) #21
  %43 = getelementptr inbounds nuw i8, ptr %3, i64 8
  %44 = load i64, ptr %43, align 8, !tbaa !175
  %45 = trunc i64 %44 to i32
  %46 = load ptr, ptr %3, align 8, !tbaa !49
  %47 = load i32, ptr %7, align 4, !tbaa !4
  %48 = call i32 @apply_all_patches(ptr noundef nonnull %5, i32 noundef %45, ptr noundef %46, i32 noundef %47) #21
  call void @strvec_clear(ptr noundef nonnull %3) #21
  call void @strvec_clear(ptr noundef nonnull %4) #21
  call void @clear_apply_state(ptr noundef nonnull %5) #21
  call void @free(ptr noundef %20) #21
  %.not20 = icmp ne i32 %48, 0
  %brmerge = or i1 %.not23, %.not20
  br i1 %brmerge, label %58, label %49

49:                                               ; preds = %40
  %50 = load ptr, ptr @the_repository, align 8, !tbaa !21
  %51 = getelementptr inbounds nuw i8, ptr %50, i64 384
  %52 = load ptr, ptr %51, align 8, !tbaa !64
  call void @discard_index(ptr noundef %52) #21
  %53 = load ptr, ptr @the_repository, align 8, !tbaa !21
  %54 = getelementptr inbounds nuw i8, ptr %53, i64 384
  %55 = load ptr, ptr %54, align 8, !tbaa !64
  %56 = call ptr @repo_get_git_dir(ptr noundef %53) #21
  %57 = call i32 @read_index_from(ptr noundef %55, ptr noundef nonnull %1, ptr noundef %56) #21
  br label %58

58:                                               ; preds = %40, %49
  %.0 = phi i32 [ %48, %40 ], [ 0, %49 ]
  call void @llvm.lifetime.end.p0(i64 4, ptr nonnull %7) #21
  call void @llvm.lifetime.end.p0(i64 4, ptr nonnull %6) #21
  call void @llvm.lifetime.end.p0(i64 448, ptr nonnull %5) #21
  call void @llvm.lifetime.end.p0(i64 24, ptr nonnull %4) #21
  call void @llvm.lifetime.end.p0(i64 24, ptr nonnull %3) #21
  ret i32 %.0
}